(isolution
SentimentAnalyzer
p1
(dp2
S'classifier'
p3
(isolution
Classifier
p4
(dp5
S'model_positive'
p6
(itest
Model
p7
(dp8
S'freq'
p9
(dp10
V
I298
sV\u043c\u043e\u0447\u044c
p11
I2
sV\u043e\u0441\u0442\u0430\u0432\u0438\u0442\u044c
p12
I2
sV\u0447\u0435\u0440\u0435\u0437
p13
I2
sV\u0442\u044b
p14
I4
sV\u0441\u0442\u0440\u0430\u043d\u043d\u044b\u0439
p15
I2
sV\u043a\u043b\u043e\u043d\u0434\u0430\u0439\u043a
p16
I2
sV\u043f\u0435\u0440\u0435\u0432\u043e\u0434
p17
I2
sV\u0434\u0435\u043d\u0435\u0433\u0430
p18
I2
sV\u043a\u043d\u0438\u0433\u0430
p19
I2
sV\u0432\u0442\u043e\u0440\u0430
p20
I2
sV\u0440\u0430\u0432\u043d\u043e
p21
I2
sV\u043b\u043e\u043d\u0434\u043e\u043d
p22
I2
sV\u0430
I2
sV\u0441\u0435\u0431\u044f
p23
I2
sV\u0430\u0432\u0442\u043e\u0440
p24
I2
sV\u0441\u043b\u0435\u0433\u043a\u0430
p25
I2
sV\u0438\u0431\u043e
p26
I2
sV\u0438
I14
sV\u043d\u0435
p27
I10
sV\u0433\u043e\u0434
p28
I2
sV\u043f\u043e\u0442
p29
I2
sV\u043d\u043e
p30
I8
sV\u043d\u0438
p31
I6
sV\u0440\u0430\u0437\u0432\u0435\u0441\u0442\u0438
p32
I2
sV\u043a\u043e\u0441\u0442\u0435\u0440
p33
I2
sV\u043e\u0434\u0438\u043d
p34
I2
sV\u043d\u0438\u043a\u0430\u043a
p35
I2
sV\u0443\u0447\u0430\u0441\u0442\u043e\u043a
p36
I2
sV\u0447\u0435\u043b\u043e\u0432\u0435\u043a
p37
I2
sV\u043e\u0433\u0440\u043e\u043c\u043d\u044b\u0439
p38
I2
sV\u043f\u0440\u043e\u0447\u0438\u0442\u0430\u0442\u044c
p39
I2
sV\u043f\u0440\u0438\u0440\u043e\u0434\u0430
p40
I2
sV\u0432\u0435\u0441\u044c
p41
I4
sV\u043e\u0442\u043b\u0438\u0447\u043d\u044b\u0439
p42
I2
sV\u0445\u043e\u0442\u0435\u0442\u044c
p43
I2
sV\u043b\u044e\u0431\u043e\u0432\u044c
p44
I2
sV\u043f\u0440\u0435\u043e\u0434\u043e\u043b\u0435\u0442\u044c
p45
I2
sV\u043f\u043e\u043c\u043d\u0438\u0442\u044c
p46
I2
sV\u043f\u0440\u043e\u0432\u0430\u043b\u0438\u0442\u044c\u0441\u044f
p47
I2
sV\u043d\u0430\u043f\u0438\u0441\u0430\u0442\u044c
p48
I2
sV\u0441\u044e\u0436\u0435\u0442
p49
I4
sV\u0441\u0435\u0439
p50
I2
sV\u043f\u0443\u0442\u044c
p51
I2
sV\u0445\u043e\u043b\u043e\u0434
p52
I2
sV\u043f\u0440\u0438\u0432\u044b\u043a\u043d\u0443\u0442\u044c
p53
I2
sV\u043d\u0443\u0436\u043d\u043e
p54
I4
sV\u0446\u0438\u043a\u043b
p55
I2
sV\u043d\u0435\u0441\u043a\u043e\u043b\u044c\u043a\u043e
p56
I2
sV\u043f\u043e\u0442\u0440\u0430\u0442\u0438\u0442\u044c
p57
I2
sV\u043f\u0440\u043e\u0442\u0438\u0432\u043e\u0441\u0442\u043e\u0438\u0442\u044c
p58
I2
sV\u0442\u0430\u043a
p59
I2
sV\u0442\u043e
p60
I4
sV\u0440\u0430\u0437
p61
I4
sV\u0441\u0442\u0435\u0440
p62
I2
sV\u043f\u043e\u0436\u0430\u043b\u0435\u0442\u044c
p63
I2
sV\u0441\u0442\u043e\u0440\u043e\u043d\u0430
p64
I2
sV\u0441\u0442\u0438\u043b\u044c
p65
I2
sV\u0441\u043b\u043e\u0433
p66
I2
sV\u0447\u0442\u043e
p67
I2
sV\u0440\u0443\u0441\u0441\u043a\u0438\u0439
p68
I2
sV\u043e\u043d
p69
I2
sV\u0437\u0430\u0445\u0432\u0430\u0442\u044b\u0432\u0430\u0442\u044c
p70
I2
sV\u0441\u043a\u0430\u0437\u0430\u0442\u044c
p71
I2
sV\u0432\u0440\u0435\u043c\u0435\u043d\u0438\u0442\u044c
p72
I2
sV\u0436\u0435
p73
I2
sV\u0432\u0437\u044f\u0442\u044c\u0441\u044f
p74
I2
sV\u0441\u0442\u0438\u0445\u0438\u044f
p75
I2
sV\u0442\u043e\u0442
p76
I2
sV\u043e\u0449\u0443\u0449\u0435\u043d\u0438\u0435
p77
I2
sV\u0432
I2
sV\u0438\u0437\u0434\u0430\u043d\u0438\u0435
p78
I2
sV\u043d\u0430\u043f\u0440\u044f\u0436\u0451\u043d\u043d\u044b\u0439
p79
I2
sV\u043c\u043d\u043e\u0433\u0438\u0439
p80
I2
sV\u043f\u0440\u0438\u044f\u0442\u043d\u043e
p81
I2
sV\u0441\u0440\u043e\u0447\u043d\u043e
p82
I2
sV\u043f\u044f\u0442\u044c\u0434\u0435\u0441\u044f\u0442
p83
I2
sV\u043b\u0435\u0434
p84
I2
sV\u0438\u0434\u0442\u0438
p85
I2
sV\u043d\u0435\u0434\u043e\u0441\u043a\u0430\u0437\u0430\u043d\u043d\u043e\u0441\u0442\u044c
p86
I2
sV\u0436\u0438\u0437\u043d\u044c
p87
I2
sV\u043e\u043f\u0438\u0441\u044b\u0432\u0430\u0442\u044c
p88
I2
sV\u0441\u0442\u0440\u0435\u043c\u043d\u0438\u043d\u0430
p89
I2
sV\u043a\u043e\u0442\u043e\u0440\u044b\u0439
p90
I2
sV\u0445\u043e\u0440\u043e\u0448\u0438\u0439
p91
I6
sV\u0432\u043e\u043f\u0440\u043e\u0441\u0438\u0442\u0435\u043b\u044c\u043d\u044b\u0439
p92
I2
sV\u0440\u043e\u043c\u0430\u043d
p93
I2
sV\u0441\u043d\u0430\u0447\u0430\u043b\u0430
p94
I2
sV\u0440\u0430\u0441\u0441\u043a\u0430\u0437
p95
I4
sV\u0433\u0435\u0440\u0430
p96
I2
sV\u0434\u0435\u043b\u0430\u0442\u044c
p97
I2
sV\u043f\u0440\u0430\u0432\u0434\u0430
p98
I2
sV\u0437\u0430\u043a\u043e\u043d\u0447\u0435\u043d\u043d\u043e\u0441\u0442\u044c
p99
I2
sV\u044d\u0442\u043e
p100
I2
sV\u0431\u043e\u0440\u044c\u0431\u0430
p101
I4
sV\u0431\u043e\u043b\u044c\u0448\u0438\u043d\u0441\u0442\u0432\u043e
p102
I2
sV\u043c\u043e\u0440\u043e\u0437
p103
I2
sV\u043f\u0440\u043e\u0438\u0437\u0432\u0435\u0434\u0435\u043d\u0438\u0435
p104
I2
sV\u043a\u0430\u043a
p105
I6
sV\u0441\u0438\u043b\u0430
p106
I4
sV1972
p107
I2
sV\u0447\u0438\u0442\u0430\u0442\u044c
p108
I4
ssS'structure'
p109
(dp110
V
(dp111
V\u0432
I2
sV\u043c\u043e\u0447\u044c
p112
I2
sV\u043e\u0441\u0442\u0430\u0432\u0438\u0442\u044c
p113
I2
sV\u0447\u0435\u0440\u0435\u0437
p114
I2
sV\u0442\u044b
p115
I4
sV\u0441\u0442\u0440\u0430\u043d\u043d\u044b\u0439
p116
I2
sV\u043a\u043b\u043e\u043d\u0434\u0430\u0439\u043a
p117
I2
sV\u043f\u0435\u0440\u0435\u0432\u043e\u0434
p118
I2
sV\u0434\u0435\u043d\u0435\u0433\u0430
p119
I2
sV\u043a\u043d\u0438\u0433\u0430
p120
I2
sV\u0432\u0442\u043e\u0440\u0430
p121
I2
sV\u0440\u0430\u0432\u043d\u043e
p122
I2
sV\u043b\u043e\u043d\u0434\u043e\u043d
p123
I2
sV\u0430
I2
sV\u0441\u0435\u0431\u044f
p124
I2
sV\u0430\u0432\u0442\u043e\u0440
p125
I2
sV\u0441\u043b\u0435\u0433\u043a\u0430
p126
I2
sV\u0434
I2
sV\u0438\u0431\u043e
p127
I2
sV\u0438
I14
sV\u0432\u043e\u043b
p128
I2
sV\u0440
I2
sV\u043e\u043f\u0438\u0441\u044b\u0432\u0430\u0442\u044c
p129
I2
sV\u043f\u043e\u0442
p130
I2
sV\u0437\u0430\u0442\u044f\u043d\u0443\u0442\u044b\u0439
p131
I2
sV\u043d\u0438
p132
I6
sV\u0440\u0430\u0437\u0432\u0435\u0441\u0442\u0438
p133
I2
sV\u043a\u043e\u0441\u0442\u0435\u0440
p134
I6
sV\u043e\u0434\u0438\u043d
p135
I2
sV\u043d\u0438\u043a\u0430\u043a
p136
I2
sV\u0443\u0447\u0430\u0441\u0442\u043e\u043a
p137
I2
sV\u0447\u0435\u043b\u043e\u0432\u0435\u043a
p138
I6
sV\u043e\u0433\u0440\u043e\u043c\u043d\u044b\u0439
p139
I2
sV\u043f\u0440\u043e\u0447\u0438\u0442\u0430\u0442\u044c
p140
I2
sV\u043f\u0440\u0438\u0440\u043e\u0434\u0430
p141
I2
sV\u0432\u0435\u0441\u044c
p142
I4
sV\u043e\u0442\u043b\u0438\u0447\u043d\u044b\u0439
p143
I2
sV\u0442\u043e
p144
I4
sV\u043b\u044e\u0431\u043e\u0432\u044c
p145
I2
sV\u043f\u0440\u0435\u043e\u0434\u043e\u043b\u0435\u0442\u044c
p146
I2
sV\u043f\u043e\u043c\u043d\u0438\u0442\u044c
p147
I2
sV\u043f\u0440\u043e\u0432\u0430\u043b\u0438\u0442\u044c\u0441\u044f
p148
I2
sV\u043d\u0430\u043f\u0438\u0441\u0430\u0442\u044c
p149
I2
sV\u0441\u044e\u0436\u0435\u0442
p150
I4
sV\u0441\u0435\u0439
p151
I2
sV\u043f\u0443\u0442\u044c
p152
I2
sV\u0445\u043e\u043b\u043e\u0434
p153
I2
sV\u043f\u0440\u0438\u0432\u044b\u043a\u043d\u0443\u0442\u044c
p154
I2
sV\u043d\u0443\u0436\u043d\u043e
p155
I4
sV\u0446\u0438\u043a\u043b
p156
I2
sV\u043d\u0435\u0441\u043a\u043e\u043b\u044c\u043a\u043e
p157
I2
sV\u043f\u043e\u0442\u0440\u0430\u0442\u0438\u0442\u044c
p158
I2
sV\u044e\u043a\u043e\u043d
p159
I2
sV\u0434\u0435\u0442\u0435\u043a\u0442\u0438\u0432
p160
I2
sV\u0442\u0430\u043a
p161
I2
sV\u0445\u043e\u0442\u0435\u0442\u044c
p162
I2
sV\u0440\u0430\u0437
p163
I4
sV\u0441\u0442\u0435\u0440
p164
I2
sV\u043f\u043e\u0436\u0430\u043b\u0435\u0442\u044c
p165
I2
sV\u043f\u0440\u043e\u043f\u0438\u0442\u044c
p166
I2
sV\u043f\u0440\u043e\u0442\u0438\u0432\u043e\u0441\u0442\u043e\u0438\u0442\u044c
p167
I2
sV\u0441\u0442\u0438\u043b\u044c
p168
I2
sV\u0441\u043b\u043e\u0433
p169
I2
sV\u0447\u0442\u043e
p170
I2
sV\u0440\u0443\u0441\u0441\u043a\u0438\u0439
p171
I2
sV\u043e\u043d
p172
I2
sV\u0437\u0430\u0445\u0432\u0430\u0442\u044b\u0432\u0430\u0442\u044c
p173
I2
sV\u0441\u043a\u0430\u0437\u0430\u0442\u044c
p174
I2
sV\u0432\u0440\u0435\u043c\u0435\u043d\u0438\u0442\u044c
p175
I2
sV\u0436\u0435
p176
I2
sV\u0432\u0437\u044f\u0442\u044c\u0441\u044f
p177
I2
sV\u0441\u0442\u0438\u0445\u0438\u044f
p178
I2
sV\u0442\u043e\u0442
p179
I2
sV\u043f\u043e\u0440\u0430
p180
I2
sV\u043e\u0449\u0443\u0449\u0435\u043d\u0438\u0435
p181
I2
sV\u0445\u043e\u0440\u043e\u0448\u0438\u0439
p182
I6
sV\u043c\u043e\u0436\u043d\u043e
p183
I2
sV\u043c\u043e\u0440\u043e\u0437
p184
I2
sV\u0438\u0437\u0434\u0430\u043d\u0438\u0435
p185
I2
sV\u043d\u0430\u043f\u0440\u044f\u0436\u0451\u043d\u043d\u044b\u0439
p186
I2
sV\u0437\u0430\u043a\u043e\u043d\u0447\u0435\u043d\u043d\u043e\u0441\u0442\u044c
p187
I2
sV\u0442
I2
sV\u043f\u0440\u0438\u044f\u0442\u043d\u043e
p188
I2
sV\u043e\u0441\u0432\u043e\u0438\u0442\u044c\u0441\u044f
p189
I2
sV\u043c\u043d\u043e\u0433\u0438\u0439
p190
I2
sV\u0441\u0440\u043e\u0447\u043d\u043e
p191
I2
sV\u043f\u044f\u0442\u044c\u0434\u0435\u0441\u044f\u0442
p192
I2
sV\u043b\u0435\u0434
p193
I2
sV\u0438\u0434\u0442\u0438
p194
I2
sV\u043d\u0435
p195
I10
sV\u043d\u0435\u0434\u043e\u0441\u043a\u0430\u0437\u0430\u043d\u043d\u043e\u0441\u0442\u044c
p196
I2
sV\u0436\u0438\u0437\u043d\u044c
p197
I2
sV\u0433\u043e\u0434
p198
I2
sV\u0441\u0442\u0440\u0435\u043c\u043d\u0438\u043d\u0430
p199
I2
sV\u043a\u043e\u0442\u043e\u0440\u044b\u0439
p200
I2
sV\u0432\u043e\u043f\u0440\u043e\u0441\u0438\u0442\u0435\u043b\u044c\u043d\u044b\u0439
p201
I2
sV\u0440\u043e\u043c\u0430\u043d
p202
I2
sV\u0441\u043d\u0430\u0447\u0430\u043b\u0430
p203
I2
sV\u0434\u0440\u0443\u0433\u043e\u0439
p204
I2
sV\u0440\u0430\u0441\u0441\u043a\u0430\u0437
p205
I4
sV\u0441\u0442\u043e\u0440\u043e\u043d\u0430
p206
I2
sV\u0433\u0435\u0440\u0430
p207
I2
sV\u0434\u0435\u043b\u0430\u0442\u044c
p208
I2
sV\u043f\u0440\u0430\u0432\u0434\u0430
p209
I2
sV\u043d\u043e
p210
I8
sV\u044d\u0442\u043e
p211
I2
sV\u0431\u043e\u0440\u044c\u0431\u0430
p212
I4
sV\u0431\u043e\u043b\u044c\u0448\u0438\u043d\u0441\u0442\u0432\u043e
p213
I2
sV\u0434\u0440
p214
I2
sV\u043f\u0440\u043e\u0438\u0437\u0432\u0435\u0434\u0435\u043d\u0438\u0435
p215
I4
sV\u043d\u0435\u043e\u043f\u0438\u0441\u0443\u0435\u043c\u044b\u0439
p216
I2
sV\u043a\u0430\u043a
p217
I6
sV\u0441\u0438\u043b\u0430
p218
I4
sV1972
p219
I2
sV\u0447\u0438\u0442\u0430\u0442\u044c
p220
I4
ssV\u0432
(dp221
V\u0440\u0443\u0441\u0441\u043a\u0438\u0439
p222
I2
ssg11
(dp223
V\u0442\u044b
p224
I2
ssg12
(dp225
V\u0441\u0435\u0431\u044f
p226
I2
ssg13
(dp227
V\u0441\u0442\u0440\u0435\u043c\u043d\u0438\u043d\u0430
p228
I2
ssg14
(dp229
V\u0434\u0435\u043b\u0430\u0442\u044c
p230
I2
sV\u0438\u0434\u0442\u0438
p231
I2
ssg15
(dp232
V\u043e\u0449\u0443\u0449\u0435\u043d\u0438\u0435
p233
I2
ssg16
(dp234
V\u043a\u043e\u0441\u0442\u0435\u0440
p235
I2
ssg17
(dp236
V\u043a\u043e\u0441\u0442\u0435\u0440
p237
I2
ssg18
(dp238
V\u043f\u043e\u0442\u0440\u0430\u0442\u0438\u0442\u044c
p239
I2
ssg19
(dp240
V\u043e\u0441\u0442\u0430\u0432\u0438\u0442\u044c
p241
I2
ssg20
(dp242
V\u0434\u0440\u0443\u0433\u043e\u0439
p243
I2
ssg21
(dp244
V\u043f\u0440\u0438\u044f\u0442\u043d\u043e
p245
I2
ssg22
(dp246
V\u0431\u043e\u0440\u044c\u0431\u0430
p247
I2
ssV\u0430
(dp248
V\u043a\u0430\u043a
p249
I2
ssg23
(dp250
V\u0441\u0442\u0440\u0430\u043d\u043d\u044b\u0439
p251
I2
ssg24
(dp252
V\u0442\u043e
p253
I2
ssg25
(dp254
V\u0437\u0430\u0442\u044f\u043d\u0443\u0442\u044b\u0439
p255
I2
ssg26
(dp256
V\u0432\u0435\u0441\u044c
p257
I2
ssV\u0438
(dp258
V\u0442
I2
sV\u0447\u0435\u043b\u043e\u0432\u0435\u043a
p259
I2
sV\u0437\u0430\u0445\u0432\u0430\u0442\u044b\u0432\u0430\u0442\u044c
p260
I2
sV\u0441\u0438\u043b\u0430
p261
I2
sV\u0431\u043e\u043b\u044c\u0448\u0438\u043d\u0441\u0442\u0432\u043e
p262
I2
sV\u0432\u043e\u043f\u0440\u043e\u0441\u0438\u0442\u0435\u043b\u044c\u043d\u044b\u0439
p263
I2
sV\u0434\u0440
p264
I2
ssg27
(dp265
V\u0432\u0437\u044f\u0442\u044c\u0441\u044f
p266
I2
sV\u0442\u043e
p267
I2
sV\u043c\u043e\u0447\u044c
p268
I2
sV\u043f\u043e\u0436\u0430\u043b\u0435\u0442\u044c
p269
I2
sV\u043f\u0440\u043e\u043f\u0438\u0442\u044c
p270
I2
ssg88
(dp271
V\u043d\u0435\u043e\u043f\u0438\u0441\u0443\u0435\u043c\u044b\u0439
p272
I2
ssg29
(dp273
V\u043e\u0441\u0432\u043e\u0438\u0442\u044c\u0441\u044f
p274
I2
ssg30
(dp275
V\u043f\u043e\u0442
p276
I2
sV\u0445\u043e\u0440\u043e\u0448\u0438\u0439
p277
I2
sV\u0441\u043b\u0435\u0433\u043a\u0430
p278
I2
sV\u0441\u0442\u0435\u0440
p279
I2
ssg31
(dp280
V\u0434\u0435\u043d\u0435\u0433\u0430
p281
I2
sV\u0432\u0440\u0435\u043c\u0435\u043d\u0438\u0442\u044c
p282
I2
sV\u0440\u0430\u0437
p283
I2
ssg32
(dp284
V\u043a\u043e\u0441\u0442\u0435\u0440
p285
I2
ssg33
(dp286
V\u043b\u044e\u0431\u043e\u0432\u044c
p287
I2
ssg34
(dp288
V\u0441\u0442\u043e\u0440\u043e\u043d\u0430
p289
I2
ssg35
(dp290
V\u0441\u0442\u0438\u043b\u044c
p291
I2
ssg36
(dp292
V\u043f\u0443\u0442\u044c
p293
I2
ssg37
(dp294
V\u043a\u043e\u0442\u043e\u0440\u044b\u0439
p295
I2
ssg38
(dp296
V\u0430\u0432\u0442\u043e\u0440
p297
I2
ssg97
(dp298
V\u0438
I2
ssg40
(dp299
V\u0438
I2
ssg41
(dp300
V\u043d\u0435
p301
I2
sV\u0440\u0430\u0432\u043d\u043e
p302
I2
ssg39
(dp303
V\u0438\u0437\u0434\u0430\u043d\u0438\u0435
p304
I2
ssg42
(dp305
V\u0440\u043e\u043c\u0430\u043d
p306
I2
ssg60
(dp307
V\u0447\u0442\u043e
p308
I2
sV\u0441\u043a\u0430\u0437\u0430\u0442\u044c
p309
I2
ssg44
(dp310
V\u0436\u0438\u0437\u043d\u044c
p311
I2
ssg45
(dp312
V\u043f\u044f\u0442\u044c\u0434\u0435\u0441\u044f\u0442
p313
I2
ssg46
(dp314
V\u0441\u0435\u0439
p315
I2
ssg47
(dp316
V\u043b\u0435\u0434
p317
I2
ssg48
(dp318
V\u0445\u043e\u0442\u0435\u0442\u044c
p319
I2
ssg49
(dp320
V\u0445\u043e\u0440\u043e\u0448\u0438\u0439
p321
I2
sV\u043a\u0430\u043a
p322
I2
ssg50
(dp323
V\u043f\u043e\u0440\u0430
p324
I2
ssg51
(dp325
V\u0440
I2
ssg52
(dp326
V\u043f\u0440\u043e\u0442\u0438\u0432\u043e\u0441\u0442\u043e\u0438\u0442\u044c
p327
I2
ssg53
(dp328
V\u043d\u0435
p329
I2
ssg54
(dp330
V\u0441\u0440\u043e\u0447\u043d\u043e
p331
I2
sV\u043f\u0440\u0435\u043e\u0434\u043e\u043b\u0435\u0442\u044c
p332
I2
ssg55
(dp333
V\u0440\u0430\u0441\u0441\u043a\u0430\u0437
p334
I2
ssg56
(dp335
V\u0440\u0430\u0437
p336
I2
ssg57
(dp337
V\u044d\u0442\u043e
p338
I2
ssg58
(dp339
V\u0432\u043e\u043b
p340
I2
ssg59
(dp341
V\u043d\u0438
p342
I2
ssg43
(dp343
V\u043c\u043d\u043e\u0433\u0438\u0439
p344
I2
ssg61
(dp345
V\u043d\u0435
p346
I2
sV\u043f\u0440\u043e\u0432\u0430\u043b\u0438\u0442\u044c\u0441\u044f
p347
I2
ssg62
(dp348
V\u0438\u0431\u043e
p349
I2
ssg63
(dp350
V\u043d\u0438
p351
I2
ssg64
(dp352
V\u0438
I2
ssg65
(dp353
V\u043f\u0440\u0438\u0432\u044b\u043a\u043d\u0443\u0442\u044c
p354
I2
ssg66
(dp355
V\u043d\u0435
p356
I2
ssg67
(dp357
V\u043e\u043d
p358
I2
ssg68
(dp359
V\u043f\u0435\u0440\u0435\u0432\u043e\u0434
p360
I2
ssg69
(dp361
V\u043d\u0435
p362
I2
ssg70
(dp363
V\u0441\u044e\u0436\u0435\u0442
p364
I2
ssg71
(dp365
V\u0442\u0430\u043a
p366
I2
ssg72
(dp367
V\u043d\u0438
p368
I2
ssg73
(dp369
V\u0442\u043e\u0442
p370
I2
ssg74
(dp371
V\u043e\u043f\u0438\u0441\u044b\u0432\u0430\u0442\u044c
p372
I2
ssg75
(dp373
V\u0438
I2
ssg76
(dp374
V\u0432\u0442\u043e\u0440\u0430
p375
I2
ssg77
(dp376
V\u0437\u0430\u043a\u043e\u043d\u0447\u0435\u043d\u043d\u043e\u0441\u0442\u044c
p377
I2
ssg91
(dp378
V\u0434\u0435\u0442\u0435\u043a\u0442\u0438\u0432
p379
I2
sV\u043d\u043e
p380
I2
sV\u043f\u043e\u043c\u043d\u0438\u0442\u044c
p381
I2
ssg78
(dp382
V1972
p383
I2
ssg79
(dp384
V\u0438
I2
ssg80
(dp385
V\u043d\u043e
p386
I2
ssg81
(dp387
V\u0441\u043b\u043e\u0433
p388
I2
ssg82
(dp389
V\u0440\u0430\u0437\u0432\u0435\u0441\u0442\u0438
p390
I2
ssg83
(dp391
V\u043c\u043e\u0440\u043e\u0437
p392
I2
ssg84
(dp393
V\u0433\u0435\u0440\u0430
p394
I2
ssg85
(dp395
V\u0442\u044b
p396
I2
ssg86
(dp397
V\u0430
I2
ssg87
(dp398
V\u0438
I2
ssg28
(dp399
V\u043d\u043e
p400
I2
ssg89
(dp401
V\u043a\u043b\u043e\u043d\u0434\u0430\u0439\u043a
p402
I2
ssg90
(dp403
V\u043d\u0443\u0436\u043d\u043e
p404
I2
ssg92
(dp405
V\u043d\u0435\u0434\u043e\u0441\u043a\u0430\u0437\u0430\u043d\u043d\u043e\u0441\u0442\u044c
p406
I2
ssg93
(dp407
V\u043f\u0440\u043e\u0447\u0438\u0442\u0430\u0442\u044c
p408
I2
ssg94
(dp409
V\u043f\u0440\u0430\u0432\u0434\u0430
p410
I2
ssg95
(dp411
V\u0431\u043e\u0440\u044c\u0431\u0430
p412
I2
sV\u0447\u0435\u043b\u043e\u0432\u0435\u043a
p413
I2
ssg96
(dp414
V\u043d\u0443\u0436\u043d\u043e
p415
I2
ssg99
(dp416
V\u043e\u0434\u0438\u043d
p417
I2
ssg98
(dp418
V\u043d\u0438\u043a\u0430\u043a
p419
I2
ssg100
(dp420
V\u043f\u0440\u043e\u0438\u0437\u0432\u0435\u0434\u0435\u043d\u0438\u0435
p421
I2
ssg101
(dp422
V\u0441\u0438\u043b\u0430
p423
I2
sV\u0441\u0442\u0438\u0445\u0438\u044f
p424
I2
ssg102
(dp425
V\u043f\u0440\u043e\u0438\u0437\u0432\u0435\u0434\u0435\u043d\u0438\u0435
p426
I2
ssg103
(dp427
V\u0443\u0447\u0430\u0441\u0442\u043e\u043a
p428
I2
ssg104
(dp429
V\u043b\u043e\u043d\u0434\u043e\u043d
p430
I2
ssg105
(dp431
V\u0438
I2
sV\u0445\u043e\u0440\u043e\u0448\u0438\u0439
p432
I2
sV\u0436\u0435
p433
I2
ssg106
(dp434
V\u043f\u0440\u0438\u0440\u043e\u0434\u0430
p435
I2
sV\u0447\u0435\u043b\u043e\u0432\u0435\u043a
p436
I2
ssg107
(dp437
V\u0433\u043e\u0434
p438
I2
ssg108
(dp439
V\u0432\u0435\u0441\u044c
p440
I2
sV\u043c\u043e\u0436\u043d\u043e
p441
I2
sssbsS'model_negative'
p442
(itest
Model
p443
(dp444
g9
(dp445
sg109
(dp446
sbsbsb.